target datalayout = "e-m:e-p270:32:32-p271:32:32-p272:64:64-i64:64-i128:128-f80:128-n8:16:32:64-S128"
target triple = "x86_64-pc-linux-gnu"

%struct.H5HF_free_section_t = type { %struct.H5FS_section_info_t, %union.anon }
%struct.H5FS_section_info_t = type { i64, i64, i32, i32 }
%union.anon = type { %struct.anon.1 }
%struct.anon.1 = type { %union.anon.2, i32, i32, i32, ptr, i32, i64, i32, i32, i32, ptr, i32, ptr }
%union.anon.2 = type { ptr }
%struct.H5C_cache_entry_t = type { ptr, i64, i64, ptr, i8, ptr, i8, i8, i8, i8, i32, i8, i8, i8, i8, i8, i32, ptr, i32, i32, i32, i32, i32, i8, i8, ptr, ptr, ptr, ptr, ptr, ptr, i8, i32, i8, i64, ptr, i64, i64, i32, i8, i32, i32, i8, ptr, ptr, ptr }
%struct.H5HF_indirect_t = type { %struct.H5C_cache_entry_t, i64, ptr, ptr, ptr, i32, i64, i64, i32, i32, i32, i32, ptr, i8, i64, ptr, ptr }
%struct.anon.0 = type { ptr, i32, i32, i32, i8 }

@H5HF_init_g = external global i8, align 1
@H5_libterm_g = external global i8, align 1

; Function Attrs: nounwind uwtable
define internal i64 @H5HF__sect_indirect_iblock_off(ptr noundef %0) #0 {
  %2 = alloca ptr, align 8
  %3 = alloca i64, align 8
  store ptr %0, ptr %2, align 8, !tbaa !23
  call void @llvm.lifetime.start.p0(i64 8, ptr %3) #7
  store i64 0, ptr %3, align 8, !tbaa !25
  %4 = load i8, ptr @H5HF_init_g, align 1, !tbaa !13, !range !15, !noundef !16
  %5 = trunc i8 %4 to i1
  br i1 %5, label %10, label %6

6:                                                ; preds = %1
  %7 = load i8, ptr @H5_libterm_g, align 1, !tbaa !13, !range !15, !noundef !16
  %8 = trunc i8 %7 to i1
  %9 = xor i1 %8, true
  br label %10

10:                                               ; preds = %6, %1
  %11 = phi i1 [ true, %1 ], [ %9, %6 ]
  %12 = xor i1 %11, true
  %13 = xor i1 %12, true
  %14 = zext i1 %13 to i32
  %15 = sext i32 %14 to i64
  %16 = call i64 @llvm.expect.i64(i64 %15, i64 1)
  %17 = icmp ne i64 %16, 0
  br i1 %17, label %18, label %38

18:                                               ; preds = %10
  %19 = load ptr, ptr %2, align 8, !tbaa !23
  %20 = getelementptr inbounds nuw %struct.H5HF_free_section_t, ptr %19, i32 0, i32 0
  %21 = getelementptr inbounds nuw %struct.H5FS_section_info_t, ptr %20, i32 0, i32 3
  %22 = load i32, ptr %21, align 4, !tbaa !38
  %23 = icmp eq i32 %22, 0
  br i1 %23, label %24, label %31

24:                                               ; preds = %18
  %25 = load ptr, ptr %2, align 8, !tbaa !23
  %26 = getelementptr inbounds nuw %struct.H5HF_free_section_t, ptr %25, i32 0, i32 1
  %27 = getelementptr inbounds nuw %struct.anon.1, ptr %26, i32 0, i32 0
  %28 = load ptr, ptr %27, align 8, !tbaa !63
  %29 = getelementptr inbounds nuw %struct.H5HF_indirect_t, ptr %28, i32 0, i32 14
  %30 = load i64, ptr %29, align 8, !tbaa !88
  br label %36

31:                                               ; preds = %18
  %32 = load ptr, ptr %2, align 8, !tbaa !23
  %33 = getelementptr inbounds nuw %struct.H5HF_free_section_t, ptr %32, i32 0, i32 1
  %34 = getelementptr inbounds nuw %struct.anon.1, ptr %33, i32 0, i32 0
  %35 = load i64, ptr %34, align 8, !tbaa !63
  br label %36

36:                                               ; preds = %31, %24
  %37 = phi i64 [ %30, %24 ], [ %35, %31 ]
  store i64 %37, ptr %3, align 8, !tbaa !25
  br label %38

38:                                               ; preds = %36, %10
  %39 = load i64, ptr %3, align 8, !tbaa !25
  call void @llvm.lifetime.end.p0(i64 8, ptr %3) #7
  ret i64 %39
}

; Function Attrs: nounwind uwtable
define internal ptr @H5HF__sect_indirect_top(ptr noundef %0) #0 {
  %2 = alloca ptr, align 8
  %3 = alloca ptr, align 8
  store ptr %0, ptr %2, align 8, !tbaa !23
  call void @llvm.lifetime.start.p0(i64 8, ptr %3) #7
  store ptr null, ptr %3, align 8, !tbaa !23
  %4 = load i8, ptr @H5HF_init_g, align 1, !tbaa !13, !range !15, !noundef !16
  %5 = trunc i8 %4 to i1
  br i1 %5, label %10, label %6

6:                                                ; preds = %1
  %7 = load i8, ptr @H5_libterm_g, align 1, !tbaa !13, !range !15, !noundef !16
  %8 = trunc i8 %7 to i1
  %9 = xor i1 %8, true
  br label %10

10:                                               ; preds = %6, %1
  %11 = phi i1 [ true, %1 ], [ %9, %6 ]
  %12 = xor i1 %11, true
  %13 = xor i1 %12, true
  %14 = zext i1 %13 to i32
  %15 = sext i32 %14 to i64
  %16 = call i64 @llvm.expect.i64(i64 %15, i64 1)
  %17 = icmp ne i64 %16, 0
  br i1 %17, label %18, label %33

18:                                               ; preds = %10
  %19 = load ptr, ptr %2, align 8, !tbaa !23
  %20 = getelementptr inbounds nuw %struct.H5HF_free_section_t, ptr %19, i32 0, i32 1
  %21 = getelementptr inbounds nuw %struct.anon.1, ptr %20, i32 0, i32 4
  %22 = load ptr, ptr %21, align 8, !tbaa !63
  %23 = icmp ne ptr %22, null
  br i1 %23, label %24, label %30

24:                                               ; preds = %18
  %25 = load ptr, ptr %2, align 8, !tbaa !23
  %26 = getelementptr inbounds nuw %struct.H5HF_free_section_t, ptr %25, i32 0, i32 1
  %27 = getelementptr inbounds nuw %struct.anon.1, ptr %26, i32 0, i32 4
  %28 = load ptr, ptr %27, align 8, !tbaa !63
  %29 = call ptr @H5HF__sect_indirect_top(ptr noundef %28)
  store ptr %29, ptr %3, align 8, !tbaa !23
  br label %32

30:                                               ; preds = %18
  %31 = load ptr, ptr %2, align 8, !tbaa !23
  store ptr %31, ptr %3, align 8, !tbaa !23
  br label %32

32:                                               ; preds = %30, %24
  br label %33

33:                                               ; preds = %32, %10
  %34 = load ptr, ptr %3, align 8, !tbaa !23
  call void @llvm.lifetime.end.p0(i64 8, ptr %3) #7
  ret ptr %34
}

; Function Attrs: nounwind uwtable
define internal i32 @H5HF__sect_row_can_merge(ptr noundef %0, ptr noundef %1, ptr noundef %2) #0 {
  %4 = alloca ptr, align 8
  %5 = alloca ptr, align 8
  %6 = alloca ptr, align 8
  %7 = alloca ptr, align 8
  %8 = alloca ptr, align 8
  %9 = alloca ptr, align 8
  %10 = alloca ptr, align 8
  %11 = alloca i32, align 4
  store ptr %0, ptr %4, align 8, !tbaa !34
  store ptr %1, ptr %5, align 8, !tbaa !34
  store ptr %2, ptr %6, align 8, !tbaa !10
  call void @llvm.lifetime.start.p0(i64 8, ptr %7) #7
  %12 = load ptr, ptr %4, align 8, !tbaa !34
  store ptr %12, ptr %7, align 8, !tbaa !23
  call void @llvm.lifetime.start.p0(i64 8, ptr %8) #7
  %13 = load ptr, ptr %5, align 8, !tbaa !34
  store ptr %13, ptr %8, align 8, !tbaa !23
  call void @llvm.lifetime.start.p0(i64 8, ptr %9) #7
  call void @llvm.lifetime.start.p0(i64 8, ptr %10) #7
  call void @llvm.lifetime.start.p0(i64 4, ptr %11) #7
  store i32 0, ptr %11, align 4, !tbaa !11
  %14 = load i8, ptr @H5HF_init_g, align 1, !tbaa !13, !range !15, !noundef !16
  %15 = trunc i8 %14 to i1
  br i1 %15, label %20, label %16

16:                                               ; preds = %3
  %17 = load i8, ptr @H5_libterm_g, align 1, !tbaa !13, !range !15, !noundef !16
  %18 = trunc i8 %17 to i1
  %19 = xor i1 %18, true
  br label %20

20:                                               ; preds = %16, %3
  %21 = phi i1 [ true, %3 ], [ %19, %16 ]
  %22 = xor i1 %21, true
  %23 = xor i1 %22, true
  %24 = zext i1 %23 to i32
  %25 = sext i32 %24 to i64
  %26 = call i64 @llvm.expect.i64(i64 %25, i64 1)
  %27 = icmp ne i64 %26, 0
  br i1 %27, label %28, label %88

28:                                               ; preds = %20
  %29 = load ptr, ptr %7, align 8, !tbaa !23
  %30 = getelementptr inbounds nuw %struct.H5HF_free_section_t, ptr %29, i32 0, i32 1
  %31 = getelementptr inbounds nuw %struct.anon.0, ptr %30, i32 0, i32 0
  %32 = load ptr, ptr %31, align 8, !tbaa !63
  %33 = call ptr @H5HF__sect_indirect_top(ptr noundef %32)
  store ptr %33, ptr %9, align 8, !tbaa !23
  %34 = load ptr, ptr %8, align 8, !tbaa !23
  %35 = getelementptr inbounds nuw %struct.H5HF_free_section_t, ptr %34, i32 0, i32 1
  %36 = getelementptr inbounds nuw %struct.anon.0, ptr %35, i32 0, i32 0
  %37 = load ptr, ptr %36, align 8, !tbaa !63
  %38 = call ptr @H5HF__sect_indirect_top(ptr noundef %37)
  store ptr %38, ptr %10, align 8, !tbaa !23
  %39 = load ptr, ptr %9, align 8, !tbaa !23
  %40 = load ptr, ptr %10, align 8, !tbaa !23
  %41 = icmp ne ptr %39, %40
  br i1 %41, label %42, label %86

42:                                               ; preds = %28
  %43 = load ptr, ptr %7, align 8, !tbaa !23
  %44 = getelementptr inbounds nuw %struct.H5HF_free_section_t, ptr %43, i32 0, i32 1
  %45 = getelementptr inbounds nuw %struct.anon.0, ptr %44, i32 0, i32 0
  %46 = load ptr, ptr %45, align 8, !tbaa !63
  %47 = call i64 @H5HF__sect_indirect_iblock_off(ptr noundef %46)
  %48 = load ptr, ptr %8, align 8, !tbaa !23
  %49 = getelementptr inbounds nuw %struct.H5HF_free_section_t, ptr %48, i32 0, i32 1
  %50 = getelementptr inbounds nuw %struct.anon.0, ptr %49, i32 0, i32 0
  %51 = load ptr, ptr %50, align 8, !tbaa !63
  %52 = call i64 @H5HF__sect_indirect_iblock_off(ptr noundef %51)
  %53 = icmp eq i64 %47, %52
  br i1 %53, label %54, label %85

54:                                               ; preds = %42
  %55 = load ptr, ptr %9, align 8, !tbaa !23
  %56 = getelementptr inbounds nuw %struct.H5HF_free_section_t, ptr %55, i32 0, i32 0
  %57 = getelementptr inbounds nuw %struct.H5FS_section_info_t, ptr %56, i32 0, i32 0
  %58 = load i64, ptr %57, align 8, !tbaa !36
  %59 = load ptr, ptr %9, align 8, !tbaa !23
  %60 = getelementptr inbounds nuw %struct.H5HF_free_section_t, ptr %59, i32 0, i32 1
  %61 = getelementptr inbounds nuw %struct.anon.1, ptr %60, i32 0, i32 6
  %62 = load i64, ptr %61, align 8, !tbaa !63
  %63 = add i64 %58, %62
  %64 = icmp ne i64 %63, -1
  br i1 %64, label %65, label %84

65:                                               ; preds = %54
  %66 = load ptr, ptr %9, align 8, !tbaa !23
  %67 = getelementptr inbounds nuw %struct.H5HF_free_section_t, ptr %66, i32 0, i32 0
  %68 = getelementptr inbounds nuw %struct.H5FS_section_info_t, ptr %67, i32 0, i32 0
  %69 = load i64, ptr %68, align 8, !tbaa !36
  %70 = load ptr, ptr %9, align 8, !tbaa !23
  %71 = getelementptr inbounds nuw %struct.H5HF_free_section_t, ptr %70, i32 0, i32 1
  %72 = getelementptr inbounds nuw %struct.anon.1, ptr %71, i32 0, i32 6
  %73 = load i64, ptr %72, align 8, !tbaa !63
  %74 = add i64 %69, %73
  %75 = load ptr, ptr %10, align 8, !tbaa !23
  %76 = getelementptr inbounds nuw %struct.H5HF_free_section_t, ptr %75, i32 0, i32 0
  %77 = getelementptr inbounds nuw %struct.H5FS_section_info_t, ptr %76, i32 0, i32 0
  %78 = load i64, ptr %77, align 8, !tbaa !36
  %79 = icmp eq i64 %74, %78
  br i1 %79, label %80, label %84

80:                                               ; preds = %65
  br label %81

81:                                               ; preds = %80
  store i32 1, ptr %11, align 4, !tbaa !11
  br label %87

82:                                               ; No predecessors!
  br label %83

83:                                               ; preds = %82
  br label %84

84:                                               ; preds = %83, %65, %54
  br label %85

85:                                               ; preds = %84, %42
  br label %86

86:                                               ; preds = %85, %28
  br label %87

87:                                               ; preds = %86, %81
  br label %88

88:                                               ; preds = %87, %20
  %89 = load i32, ptr %11, align 4, !tbaa !11
  call void @llvm.lifetime.end.p0(i64 4, ptr %11) #7
  call void @llvm.lifetime.end.p0(i64 8, ptr %10) #7
  call void @llvm.lifetime.end.p0(i64 8, ptr %9) #7
  call void @llvm.lifetime.end.p0(i64 8, ptr %8) #7
  call void @llvm.lifetime.end.p0(i64 8, ptr %7) #7
  ret i32 %89
}