; Function Attrs: nofree norecurse nosync nounwind memory(read, inaccessiblemem: none) uwtable
define internal range(i32 0, 2) i32 @H5HF__sect_row_can_merge(ptr noundef readonly captures(none) %0, ptr noundef readonly captures(none) %1, ptr readnone captures(none) %2) #3 {
  %4 = load i8, ptr @H5HF_init_g, align 1, !tbaa !3, !range !7, !noundef !8
  %5 = trunc nuw i8 %4 to i1
  %6 = load i8, ptr @H5_libterm_g, align 1, !range !7
  %7 = trunc nuw i8 %6 to i1
  %8 = xor i1 %7, true
  %9 = select i1 %5, i1 true, i1 %8
  br i1 %9, label %10, label %46, !prof !9

10:                                               ; preds = %3
  %11 = getelementptr inbounds nuw i8, ptr %0, i64 24
  %12 = load ptr, ptr %11, align 8, !tbaa !26
  br label %tailrecurse.i

tailrecurse.i:                                    ; preds = %10, %tailrecurse.i
  %.tr.i = phi ptr [ %14, %tailrecurse.i ], [ %12, %10 ]
  %13 = getelementptr inbounds nuw i8, ptr %.tr.i, i64 48
  %14 = load ptr, ptr %13, align 8, !tbaa !26
  %.not.i = icmp eq ptr %14, null
  br i1 %.not.i, label %H5HF__sect_indirect_top.exit, label %tailrecurse.i

H5HF__sect_indirect_top.exit:                     ; preds = %tailrecurse.i
  %15 = getelementptr inbounds nuw i8, ptr %1, i64 24
  %16 = load ptr, ptr %15, align 8, !tbaa !26
  br label %tailrecurse.i18

tailrecurse.i18:                                  ; preds = %H5HF__sect_indirect_top.exit, %tailrecurse.i18
  %.tr.i19 = phi ptr [ %18, %tailrecurse.i18 ], [ %16, %H5HF__sect_indirect_top.exit ]
  %17 = getelementptr inbounds nuw i8, ptr %.tr.i19, i64 48
  %18 = load ptr, ptr %17, align 8, !tbaa !26
  %.not.i20 = icmp eq ptr %18, null
  br i1 %.not.i20, label %H5HF__sect_indirect_top.exit21, label %tailrecurse.i18

H5HF__sect_indirect_top.exit21:                   ; preds = %tailrecurse.i18
  %.not = icmp eq ptr %.tr.i, %.tr.i19
  br i1 %.not, label %46, label %19

19:                                               ; preds = %H5HF__sect_indirect_top.exit21
  %20 = getelementptr inbounds nuw i8, ptr %12, i64 20
  %21 = load i32, ptr %20, align 4, !tbaa !25
  %22 = icmp eq i32 %21, 0
  %23 = getelementptr inbounds nuw i8, ptr %12, i64 24
  br i1 %22, label %24, label %27

24:                                               ; preds = %19
  %25 = load ptr, ptr %23, align 8, !tbaa !26
  %26 = getelementptr inbounds nuw i8, ptr %25, i64 336
  br label %27

27:                                               ; preds = %24, %19
  %.in.i = phi ptr [ %26, %24 ], [ %23, %19 ]
  %28 = load i64, ptr %.in.i, align 8, !tbaa !26
  %29 = getelementptr inbounds nuw i8, ptr %16, i64 20
  %30 = load i32, ptr %29, align 4, !tbaa !25
  %31 = icmp eq i32 %30, 0
  %32 = getelementptr inbounds nuw i8, ptr %16, i64 24
  br i1 %31, label %33, label %H5HF__sect_indirect_iblock_off.exit24

33:                                               ; preds = %27
  %34 = load ptr, ptr %32, align 8, !tbaa !26
  %35 = getelementptr inbounds nuw i8, ptr %34, i64 336
  br label %H5HF__sect_indirect_iblock_off.exit24

H5HF__sect_indirect_iblock_off.exit24:            ; preds = %27, %33
  %.in.i23 = phi ptr [ %35, %33 ], [ %32, %27 ]
  %36 = load i64, ptr %.in.i23, align 8, !tbaa !26
  %37 = icmp eq i64 %28, %36
  br i1 %37, label %38, label %46

38:                                               ; preds = %H5HF__sect_indirect_iblock_off.exit24
  %39 = load i64, ptr %.tr.i, align 8, !tbaa !23
  %40 = getelementptr inbounds nuw i8, ptr %.tr.i, i64 64
  %41 = load i64, ptr %40, align 8, !tbaa !26
  %42 = add i64 %41, %39
  %.not16 = icmp eq i64 %42, -1
  br i1 %.not16, label %46, label %43

43:                                               ; preds = %38
  %44 = load i64, ptr %.tr.i19, align 8, !tbaa !23
  %45 = icmp eq i64 %42, %44
  %spec.select = zext i1 %45 to i32
  br label %46

46:                                               ; preds = %43, %H5HF__sect_indirect_iblock_off.exit24, %38, %H5HF__sect_indirect_top.exit21, %3
  %.0 = phi i32 [ 0, %38 ], [ 0, %H5HF__sect_indirect_iblock_off.exit24 ], [ 0, %H5HF__sect_indirect_top.exit21 ], [ 0, %3 ], [ %spec.select, %43 ]
  ret i32 %.0
}